; Function Attrs: mustprogress uwtable
define void @_ZN32pxrInternal_v0_24__pxrReserved__8TsSplineC2ERKNS_13TsKeyFrameMapENS_19TsExtrapolationTypeES4_RKNS_12TsLoopParamsE(ptr noundef nonnull align 8 dereferenceable(16) %0, ptr noundef nonnull align 8 dereferenceable(24) %1, i32 noundef %2, i32 noundef %3, ptr noundef nonnull align 8 dereferenceable(80) %4) unnamed_addr #3 align 2 personality ptr @__gxx_personality_v0 {
  %6 = alloca %"struct.std::pair", align 4
  %7 = tail call noalias noundef nonnull dereferenceable(136) ptr @_Znwm(i64 noundef 136) #19
  invoke void @_ZN32pxrInternal_v0_24__pxrReserved__18TsSpline_KeyFramesC1Ev(ptr noundef nonnull align 8 dereferenceable(136) %7)
          to label %8 unwind label %17

8:                                                ; preds = %5
  store ptr %7, ptr %0, align 8
  %9 = getelementptr inbounds nuw i8, ptr %0, i64 8
  tail call void @_ZNSt14__shared_countILN9__gnu_cxx12_Lock_policyE2EEC2IPN32pxrInternal_v0_24__pxrReserved__18TsSpline_KeyFramesEEET_(ptr noundef nonnull align 8 dereferenceable(8) %9, ptr noundef nonnull %7)
  %10 = load ptr, ptr %0, align 8
  store i32 %2, ptr %6, align 4
  %11 = getelementptr inbounds nuw i8, ptr %6, i64 4
  store i32 %3, ptr %11, align 4
  invoke void @_ZN32pxrInternal_v0_24__pxrReserved__18TsSpline_KeyFrames16SetExtrapolationERKSt4pairINS_19TsExtrapolationTypeES2_E(ptr noundef nonnull align 8 dereferenceable(136) %10, ptr noundef nonnull align 4 dereferenceable(8) %6)
          to label %12 unwind label %19

12:                                               ; preds = %8
  %13 = load ptr, ptr %0, align 8
  invoke void @_ZN32pxrInternal_v0_24__pxrReserved__18TsSpline_KeyFrames13SetLoopParamsERKNS_12TsLoopParamsE(ptr noundef nonnull align 8 dereferenceable(136) %13, ptr noundef nonnull align 8 dereferenceable(80) %4)
          to label %14 unwind label %19

14:                                               ; preds = %12
  %15 = load ptr, ptr %0, align 8
  invoke void @_ZN32pxrInternal_v0_24__pxrReserved__18TsSpline_KeyFrames12SetKeyFramesERKNS_13TsKeyFrameMapE(ptr noundef nonnull align 8 dereferenceable(136) %15, ptr noundef nonnull align 8 dereferenceable(24) %1)
          to label %16 unwind label %19

16:                                               ; preds = %14
  ret void

17:                                               ; preds = %5
  %18 = landingpad { ptr, i32 }
          cleanup
  tail call void @_ZdlPvm(ptr noundef nonnull %7, i64 noundef 136) #20
  br label %21

19:                                               ; preds = %14, %12, %8
  %20 = landingpad { ptr, i32 }
          cleanup
  call void @_ZNSt10shared_ptrIN32pxrInternal_v0_24__pxrReserved__18TsSpline_KeyFramesEED2Ev(ptr noundef nonnull align 8 dereferenceable(16) %0) #21
  br label %21

21:                                               ; preds = %19, %17
  %.pn = phi { ptr, i32 } [ %20, %19 ], [ %18, %17 ]
  resume { ptr, i32 } %.pn
}